liboxygentransparentstyle.so.4 liboxygentransparentstyle4 #MINVER#
 _ZN6Oxygen11ShadowCache10readConfigERK7KConfig@Base 0~git34095bee
 _ZN6Oxygen11ShadowCache13setShadowSizeEN8QPalette10ColorGroupEd@Base 0~git34095bee
 _ZN6Oxygen11ShadowCache22setShadowConfigurationERKNS_19ShadowConfigurationE@Base 0~git34095bee
 _ZN6Oxygen11ShadowCache7tileSetENS0_3KeyEd@Base 0~git34095bee
 _ZN6Oxygen11ShadowCache7tileSetERKNS0_3KeyE@Base 0~git34095bee
 _ZN6Oxygen11ShadowCacheC1ERNS_6HelperE@Base 0~git34095bee
 _ZN6Oxygen11ShadowCacheC2ERNS_6HelperE@Base 0~git34095bee
 _ZN6Oxygen19ShadowConfiguration13setInnerColorE6QColor@Base 0~git34095bee
 _ZN6Oxygen19ShadowConfiguration13setOuterColorE6QColor@Base 0~git34095bee
 _ZN6Oxygen19ShadowConfigurationC1EN8QPalette10ColorGroupE@Base 0~git34095bee
 _ZN6Oxygen19ShadowConfigurationC1EN8QPalette10ColorGroupERK12KConfigGroup@Base 0~git34095bee
 _ZN6Oxygen19ShadowConfigurationC2EN8QPalette10ColorGroupE@Base 0~git34095bee
 _ZN6Oxygen19ShadowConfigurationC2EN8QPalette10ColorGroupERK12KConfigGroup@Base 0~git34095bee
 _ZN6Oxygen6Helper10alphaColorE6QColord@Base 0~git34095bee
 _ZN6Oxygen6Helper10drawShadowER8QPainterRK6QColori@Base 0~git34095bee
 _ZN6Oxygen6Helper10slabSunkenERK6QColori@Base 0~git34095bee
 _ZN6Oxygen6Helper11_shadowGainE@Base 0~git34095bee
 _ZN6Oxygen6Helper12lowThresholdERK6QColor@Base 0~git34095bee
 _ZN6Oxygen6Helper12reloadConfigEv@Base 0~git34095bee
 _ZN6Oxygen6Helper13calcDarkColorERK6QColor@Base 0~git34095bee
 _ZN6Oxygen6Helper13drawOuterGlowER8QPainterRK6QColori@Base 0~git34095bee
 _ZN6Oxygen6Helper13drawSeparatorEP8QPainterRK5QRectRK6QColorN2Qt11OrientationE@Base 0~git34095bee
 _ZN6Oxygen6Helper13highThresholdERK6QColor@Base 0~git34095bee
 _ZN6Oxygen6Helper14_slabThicknessE@Base 0~git34095bee
 _ZN6Oxygen6Helper14calcLightColorERK6QColor@Base 0~git34095bee
 _ZN6Oxygen6Helper14drawFloatFrameEP8QPainter5QRectRK6QColorbbS6_6QFlagsINS_7TileSet4TileEE@Base 0~git34095bee
 _ZN6Oxygen6Helper14fillButtonSlabER8QPainterRK5QRectRK6QColorb@Base 0~git34095bee
 _ZN6Oxygen6Helper14radialGradientERK6QColorii@Base 0~git34095bee
 _ZN6Oxygen6Helper15backgroundColorERK6QColord@Base 0~git34095bee
 _ZN6Oxygen6Helper15calcShadowColorERK6QColor@Base 0~git34095bee
 _ZN6Oxygen6Helper15setMaxCacheSizeEi@Base 0~git34095bee
 _ZN6Oxygen6Helper16invalidateCachesEv@Base 0~git34095bee
 _ZN6Oxygen6Helper16verticalGradientERK6QColorii@Base 0~git34095bee
 _ZN6Oxygen6Helper18backgroundTopColorERK6QColor@Base 0~git34095bee
 _ZN6Oxygen6Helper21backgroundBottomColorERK6QColor@Base 0~git34095bee
 _ZN6Oxygen6Helper21backgroundRadialColorERK6QColor@Base 0~git34095bee
 _ZN6Oxygen6Helper22renderBackgroundPixmapEP8QPainterRK5QRectPK7QWidgetS8_ii@Base 0~git34095bee
 _ZN6Oxygen6Helper22renderWindowBackgroundEP8QPainterRK5QRectPK7QWidgetS8_RK6QColorii@Base 0~git34095bee
 _ZN6Oxygen6Helper4slabERK6QColorS3_di@Base 0~git34095bee
 _ZN6Oxygen6Helper8drawSlabER8QPainterRK6QColord@Base 0~git34095bee
 _ZN6Oxygen6Helper9_glowBiasE@Base 0~git34095bee
 _ZN6Oxygen6Helper9decoColorERK6QColorS3_@Base 0~git34095bee
 _ZN6Oxygen6Helper9renderDotEP8QPainterRK6QPointRK6QColor@Base 0~git34095bee
 _ZN6Oxygen6HelperC1ERK10QByteArray@Base 0~git34095bee
 _ZN6Oxygen6HelperC2ERK10QByteArray@Base 0~git34095bee
 _ZN6Oxygen7TileSet10initPixmapER7QVectorI7QPixmapERKS2_iiRK5QRect@Base 0~git34095bee
 _ZN6Oxygen7TileSet11_sideExtentE@Base 0~git34095bee
 _ZN6Oxygen7TileSetC1ERK7QPixmapiiiib@Base 0~git34095bee
 _ZN6Oxygen7TileSetC1ERK7QPixmapiiiiiiiib@Base 0~git34095bee
 _ZN6Oxygen7TileSetC1Ev@Base 0~git34095bee
 _ZN6Oxygen7TileSetC2ERK7QPixmapiiiib@Base 0~git34095bee
 _ZN6Oxygen7TileSetC2ERK7QPixmapiiiiiiiib@Base 0~git34095bee
 _ZN6Oxygen7TileSetC2Ev@Base 0~git34095bee
 _ZN6Oxygen9Animation11qt_metacallEN11QMetaObject4CallEiPPv@Base 0~git34095bee
 _ZN6Oxygen9Animation11qt_metacastEPKc@Base 0~git34095bee
 _ZN6Oxygen9Animation16staticMetaObjectE@Base 0~git34095bee
 _ZN6Oxygen9ItemModel4sortEiN2Qt9SortOrderE@Base 0~git34095bee
 _ZN6Oxygen9ItemModelC1EP7QObject@Base 0~git34095bee
 _ZN6Oxygen9ItemModelC2EP7QObject@Base 0~git34095bee
 _ZNK6Oxygen11ShadowCache14renderGradientER8QPainterRK6QRectFRK15QRadialGradientb@Base 0~git34095bee
 _ZNK6Oxygen11ShadowCache26shadowConfigurationChangedERKNS_19ShadowConfigurationE@Base 0~git34095bee
 _ZNK6Oxygen11ShadowCache6pixmapERKNS0_3KeyEb@Base 0~git34095bee
 _ZNK6Oxygen19ShadowConfiguration5writeER12KConfigGroup@Base 0~git34095bee
 _ZNK6Oxygen6Helper10setHasArgbEmb@Base 0~git34095bee
 _ZNK6Oxygen6Helper10setHasHintEmmb@Base 0~git34095bee
 _ZNK6Oxygen6Helper11roundedMaskERK5QRectiiii@Base 0~git34095bee
 _ZNK6Oxygen6Helper17drawInverseShadowER8QPainterRK6QColoriid@Base 0~git34095bee
 _ZNK6Oxygen6Helper19hasBackgroundPixmapEm@Base 0~git34095bee
 _ZNK6Oxygen6Helper21hasBackgroundGradientEm@Base 0~git34095bee
 _ZNK6Oxygen6Helper22setHasBackgroundPixmapEmb@Base 0~git34095bee
 _ZNK6Oxygen6Helper23checkAutoFillBackgroundEPK7QWidget@Base 0~git34095bee
 _ZNK6Oxygen6Helper24setHasBackgroundGradientEmb@Base 0~git34095bee
 _ZNK6Oxygen6Helper6configEv@Base 0~git34095bee
 _ZNK6Oxygen6Helper7hasArgbEm@Base 0~git34095bee
 _ZNK6Oxygen6Helper7hasHintEmm@Base 0~git34095bee
 _ZNK6Oxygen6Helper8fillSlabER8QPainterRK5QRecti@Base 0~git34095bee
 _ZNK6Oxygen7TileSet4saveERK7QStringS3_PKci@Base 0~git34095bee
 _ZNK6Oxygen7TileSet6renderERK5QRectP8QPainter6QFlagsINS0_4TileEE@Base 0~git34095bee
 _ZNK6Oxygen9Animation10metaObjectEv@Base 0~git34095bee
 _ZNK6Oxygen9ItemModel7indexesEiRK11QModelIndex@Base 0~git34095bee
 _ZTIN6Oxygen11ShadowCache8GaussianE@Base 0~git34095bee
 _ZTIN6Oxygen11ShadowCache9ParabolicE@Base 0~git34095bee
 _ZTIN6Oxygen11ShadowCacheE@Base 0~git34095bee
 _ZTIN6Oxygen19ShadowConfigurationE@Base 0~git34095bee
 _ZTIN6Oxygen6HelperE@Base 0~git34095bee
 _ZTIN6Oxygen7TileSetE@Base 0~git34095bee
 _ZTIN6Oxygen9AnimationE@Base 0~git34095bee
 _ZTIN6Oxygen9ItemModelE@Base 0~git34095bee
 _ZTSN6Oxygen11ShadowCache8GaussianE@Base 0~git34095bee
 _ZTSN6Oxygen11ShadowCache9ParabolicE@Base 0~git34095bee
 _ZTSN6Oxygen11ShadowCacheE@Base 0~git34095bee
 _ZTSN6Oxygen19ShadowConfigurationE@Base 0~git34095bee
 _ZTSN6Oxygen6HelperE@Base 0~git34095bee
 _ZTSN6Oxygen7TileSetE@Base 0~git34095bee
 _ZTSN6Oxygen9AnimationE@Base 0~git34095bee
 _ZTSN6Oxygen9ItemModelE@Base 0~git34095bee
 _ZTVN6Oxygen11ShadowCache8GaussianE@Base 0~git34095bee
 _ZTVN6Oxygen11ShadowCache9ParabolicE@Base 0~git34095bee
 _ZTVN6Oxygen11ShadowCacheE@Base 0~git34095bee
 _ZTVN6Oxygen19ShadowConfigurationE@Base 0~git34095bee
 _ZTVN6Oxygen6HelperE@Base 0~git34095bee
 _ZTVN6Oxygen7TileSetE@Base 0~git34095bee
 _ZTVN6Oxygen9AnimationE@Base 0~git34095bee
 _ZTVN6Oxygen9ItemModelE@Base 0~git34095bee
